target datalayout = "e-m:e-p270:32:32-p271:32:32-p272:64:64-i64:64-i128:128-f80:128-n8:16:32:64-S128"
target triple = "x86_64-unknown-linux-gnu"

%"class.Assimp::MD5Importer" = type <{ %"class.Assimp::BaseImporter", ptr, %"class.std::__cxx11::basic_string", ptr, i32, i32, ptr, i8, i8, i8, i8, [4 x i8] }>
%"class.Assimp::BaseImporter" = type { ptr, double, double, %"class.std::__cxx11::basic_string", %"class.std::__exception_ptr::exception_ptr", ptr }
%"class.std::__exception_ptr::exception_ptr" = type { ptr }
%"class.std::__cxx11::basic_string" = type { %"struct.std::__cxx11::basic_string<char>::_Alloc_hider", i64, %union.anon }
%"struct.std::__cxx11::basic_string<char>::_Alloc_hider" = type { ptr }
%union.anon = type { i64, [8 x i8] }

@.str.1 = private unnamed_addr constant [28 x i8] c"IMPORT_MD5_NO_ANIM_AUTOLOAD\00", align 1

; Function Attrs: mustprogress uwtable
define hidden void @_ZN6Assimp11MD5Importer15SetupPropertiesEPKNS_8ImporterE(ptr noundef nonnull align 8 dereferenceable(140) %this, ptr noundef %pImp) unnamed_addr #3 align 2 {
entry:
  %this.addr = alloca ptr, align 8
  %pImp.addr = alloca ptr, align 8
  store ptr %this, ptr %this.addr, align 8
  store ptr %pImp, ptr %pImp.addr, align 8
  %this1 = load ptr, ptr %this.addr, align 8
  %0 = load ptr, ptr %pImp.addr, align 8
  %call = call noundef i32 @_ZNK6Assimp8Importer18GetPropertyIntegerEPKci(ptr noundef nonnull align 8 dereferenceable(8) %0, ptr noundef @.str.1, i32 noundef 0)
  %cmp = icmp ne i32 0, %call
  %mCconfigNoAutoLoad = getelementptr inbounds %"class.Assimp::MD5Importer", ptr %this1, i32 0, i32 10
  %frombool = zext i1 %cmp to i8
  store i8 %frombool, ptr %mCconfigNoAutoLoad, align 1
  ret void
}