; Function Attrs: mustprogress uwtable
define hidden void @_ZN6Assimp11MD5Importer15SetupPropertiesEPKNS_8ImporterE(ptr nocapture noundef nonnull writeonly align 8 dereferenceable(140) %this, ptr noundef nonnull %pImp) unnamed_addr #2 align 2 {
entry:
  %call = tail call noundef i32 @_ZNK6Assimp8Importer18GetPropertyIntegerEPKci(ptr noundef nonnull align 8 dereferenceable(8) %pImp, ptr noundef nonnull @.str.1, i32 noundef 0)
  %cmp = icmp ne i32 %call, 0
  %mCconfigNoAutoLoad = getelementptr inbounds i8, ptr %this, i64 139
  %frombool = zext i1 %cmp to i8
  store i8 %frombool, ptr %mCconfigNoAutoLoad, align 1
  ret void
}